target datalayout = "e-m:e-p270:32:32-p271:32:32-p272:64:64-i64:64-i128:128-f80:128-n8:16:32:64-S128"
target triple = "x86_64-pc-linux-gnu"

%struct.PageHeaderData = type { %struct.PageXLogRecPtr, i16, i16, i16, i16, i16, i16, i32, [0 x %struct.ItemIdData] }
%struct.PageXLogRecPtr = type { i32, i32 }
%struct.ItemIdData = type { i32 }
%struct.GinPageOpaqueData = type { i32, i16, i16 }

; Function Attrs: inlinehint nounwind uwtable
define internal void @PageValidateSpecialPointer(ptr noundef %0) #4 {
  %2 = alloca ptr, align 8
  store ptr %0, ptr %2, align 8
  ret void
}

; Function Attrs: inlinehint nounwind uwtable
define internal zeroext i1 @PageIsNew(ptr noundef %0) #4 {
  %2 = alloca ptr, align 8
  store ptr %0, ptr %2, align 8
  %3 = load ptr, ptr %2, align 8
  %4 = getelementptr inbounds nuw %struct.PageHeaderData, ptr %3, i32 0, i32 4
  %5 = load i16, ptr %4, align 2
  %6 = zext i16 %5 to i32
  %7 = icmp eq i32 %6, 0
  ret i1 %7
}

; Function Attrs: nounwind uwtable
define dso_local zeroext i1 @GinPageIsRecyclable(ptr noundef %0) #0 {
  %2 = alloca i1, align 1
  %3 = alloca ptr, align 8
  %4 = alloca i32, align 4
  %5 = alloca i32, align 4
  store ptr %0, ptr %3, align 8
  call void @llvm.lifetime.start.p0(i64 4, ptr %4) #7
  %6 = load ptr, ptr %3, align 8
  %7 = call zeroext i1 @PageIsNew(ptr noundef %6)
  br i1 %7, label %8, label %9

8:                                                ; preds = %1
  store i1 true, ptr %2, align 1
  store i32 1, ptr %5, align 4
  br label %34

9:                                                ; preds = %1
  %10 = load ptr, ptr %3, align 8
  call void @PageValidateSpecialPointer(ptr noundef %10)
  %11 = load ptr, ptr %3, align 8
  %12 = load ptr, ptr %3, align 8
  %13 = getelementptr inbounds nuw %struct.PageHeaderData, ptr %12, i32 0, i32 5
  %14 = load i16, ptr %13, align 4
  %15 = zext i16 %14 to i32
  %16 = sext i32 %15 to i64
  %17 = getelementptr inbounds i8, ptr %11, i64 %16
  %18 = getelementptr inbounds nuw %struct.GinPageOpaqueData, ptr %17, i32 0, i32 2
  %19 = load i16, ptr %18, align 2
  %20 = zext i16 %19 to i32
  %21 = and i32 %20, 4
  %22 = icmp ne i32 %21, 0
  br i1 %22, label %24, label %23

23:                                               ; preds = %9
  store i1 false, ptr %2, align 1
  store i32 1, ptr %5, align 4
  br label %34

24:                                               ; preds = %9
  %25 = load ptr, ptr %3, align 8
  %26 = getelementptr inbounds nuw %struct.PageHeaderData, ptr %25, i32 0, i32 7
  %27 = load i32, ptr %26, align 4
  store i32 %27, ptr %4, align 4
  %28 = load i32, ptr %4, align 4
  %29 = icmp ne i32 %28, 0
  br i1 %29, label %31, label %30

30:                                               ; preds = %24
  store i1 true, ptr %2, align 1
  store i32 1, ptr %5, align 4
  br label %34

31:                                               ; preds = %24
  %32 = load i32, ptr %4, align 4
  %33 = call zeroext i1 @GlobalVisCheckRemovableXid(ptr noundef null, i32 noundef %32)
  store i1 %33, ptr %2, align 1
  store i32 1, ptr %5, align 4
  br label %34

34:                                               ; preds = %31, %30, %23, %8
  call void @llvm.lifetime.end.p0(i64 4, ptr %4) #7
  %35 = load i1, ptr %2, align 1
  ret i1 %35
}