; Function Attrs: nounwind uwtable
define dso_local zeroext i1 @GinPageIsRecyclable(ptr noundef readonly captures(none) %0) local_unnamed_addr #0 {
  %2 = getelementptr i8, ptr %0, i64 14
  %.val = load i16, ptr %2, align 2
  %3 = icmp eq i16 %.val, 0
  br i1 %3, label %17, label %4

4:                                                ; preds = %1
  %5 = getelementptr inbounds nuw i8, ptr %0, i64 16
  %6 = load i16, ptr %5, align 4
  %7 = zext i16 %6 to i64
  %8 = getelementptr inbounds nuw i8, ptr %0, i64 %7
  %9 = getelementptr inbounds nuw i8, ptr %8, i64 6
  %10 = load i16, ptr %9, align 2
  %11 = and i16 %10, 4
  %.not = icmp eq i16 %11, 0
  br i1 %.not, label %17, label %12

12:                                               ; preds = %4
  %13 = getelementptr inbounds nuw i8, ptr %0, i64 20
  %14 = load i32, ptr %13, align 4
  %.not8 = icmp eq i32 %14, 0
  br i1 %.not8, label %17, label %15

15:                                               ; preds = %12
  %16 = tail call zeroext i1 @GlobalVisCheckRemovableXid(ptr noundef null, i32 noundef %14) #7
  br label %17

17:                                               ; preds = %12, %4, %1, %15
  %.0 = phi i1 [ %16, %15 ], [ true, %1 ], [ false, %4 ], [ true, %12 ]
  ret i1 %.0
}